(lp0
(dp1
Vdomain
p2
V.facebook.com
p3
sVname
p4
Vreg_fb_gate
p5
sVvalue
p6
Vhttps%3A%2F%2Fwww.facebook.com%2F
p7
sVpath
p8
V/
p9
sVhttpOnly
p10
I01
sVsecure
p11
I01
sa(dp12
Vdomain
p13
V.facebook.com
p14
sVname
p15
Vreg_fb_ref
p16
sVvalue
p17
Vhttps%3A%2F%2Fwww.facebook.com%2F
p18
sVpath
p19
g9
sVhttpOnly
p20
I01
sVsecure
p21
I01
sa(dp22
Vdomain
p23
V.facebook.com
p24
sVsecure
p25
I01
sVvalue
p26
Va-_-WndDxv75R3zc4PH_I-z3
p27
sVexpiry
p28
F1589728878.123013
sVpath
p29
g9
sVhttpOnly
p30
I01
sVname
p31
Vdatr
p32
sa(dp33
Vdomain
p34
V.facebook.com
p35
sVsecure
p36
I01
sVvalue
p37
V1040x592
p38
sVexpiry
p39
I1527261677
sVpath
p40
g9
sVhttpOnly
p41
I00
sVname
p42
Vwd
p43
sa(dp44
Vdomain
p45
V.facebook.com
p46
sVname
p47
V_js_reg_fb_ref
p48
sVvalue
p49
Vhttps%3A%2F%2Fwww.facebook.com%2F
p50
sVpath
p51
g9
sVhttpOnly
p52
I00
sVsecure
p53
I01
sa(dp54
Vdomain
p55
V.facebook.com
p56
sVsecure
p57
I01
sVvalue
p58
Va-_-Wpjh3s-TiIoj-A59z6H8
p59
sVexpiry
p60
F1589728875.173316
sVpath
p61
g9
sVhttpOnly
p62
I01
sVname
p63
Vsb
p64
sa(dp65
Vdomain
p66
V.facebook.com
p67
sVsecure
p68
I01
sVvalue
p69
V0JtyQKGpKg8xyqBXC..Ba_u9r.cU.AAA.0.0.Ba_u9r.AWVUlI07
p70
sVexpiry
p71
F1534432875.173206
sVpath
p72
g9
sVhttpOnly
p73
I01
sVname
p74
Vfr
p75
sa.